target datalayout = "e-m:e-p270:32:32-p271:32:32-p272:64:64-i64:64-i128:128-f80:128-n8:16:32:64-S128"
target triple = "x86_64-unknown-linux-gnu"

%class.grobner = type <{ %struct.grobner_stats, ptr, ptr, %class.arith_util, %class.obj_map, %"struct.grobner::var_lt", %"struct.grobner::monomial_lt", %class.obj_hashtable, %class.obj_hashtable, %class.ptr_vector, %class.ptr_vector, i8, [7 x i8], ptr, %class.svector, %class.ptr_vector.3, %class.ptr_vector.3, %class.ptr_vector.5, %class.ptr_vector.5, i32, [4 x i8] }>
%struct.grobner_stats = type { i64, i64, i64, i64 }
%class.arith_util = type { ptr, ptr }
%class.obj_map = type { %class.core_hashtable }
%class.core_hashtable = type <{ ptr, i32, i32, i32, [4 x i8] }>
%"struct.grobner::var_lt" = type { ptr }
%"struct.grobner::monomial_lt" = type { ptr }
%class.obj_hashtable = type { %class.core_hashtable.base.1, [4 x i8] }
%class.core_hashtable.base.1 = type <{ ptr, i32, i32, i32 }>
%class.ptr_vector = type { %class.vector }
%class.vector = type { ptr }
%class.svector = type { %class.vector.2 }
%class.vector.2 = type { ptr }
%class.ptr_vector.3 = type { %class.vector.4 }
%class.vector.4 = type { ptr }
%class.ptr_vector.5 = type { %class.vector.6 }
%class.vector.6 = type { ptr }
%"class.grobner::equation" = type { i32, i32, %class.ptr_vector.3, ptr }

; Function Attrs: mustprogress uwtable
define linkonce_odr hidden void @_ZN6vectorIPN7grobner8monomialELb0EjE11free_memoryEv(ptr noundef nonnull align 8 dereferenceable(8) %this) #4 comdat align 2 {
entry:
  %this.addr = alloca ptr, align 8
  store ptr %this, ptr %this.addr, align 8
  %this1 = load ptr, ptr %this.addr, align 8
  %m_data = getelementptr inbounds %class.vector.4, ptr %this1, i32 0, i32 0
  %0 = load ptr, ptr %m_data, align 8
  %add.ptr = getelementptr inbounds i32, ptr %0, i64 -2
  call void @_ZN6memory10deallocateEPv(ptr noundef %add.ptr)
  ret void
}

; Function Attrs: mustprogress uwtable
define linkonce_odr hidden void @_ZN6vectorIPN7grobner8monomialELb0EjE7destroyEv(ptr noundef nonnull align 8 dereferenceable(8) %this) #4 comdat align 2 {
entry:
  %this.addr = alloca ptr, align 8
  store ptr %this, ptr %this.addr, align 8
  %this1 = load ptr, ptr %this.addr, align 8
  %m_data = getelementptr inbounds %class.vector.4, ptr %this1, i32 0, i32 0
  %0 = load ptr, ptr %m_data, align 8
  %tobool = icmp ne ptr %0, null
  br i1 %tobool, label %if.then, label %if.end

if.then:                                          ; preds = %entry
  call void @_ZN6vectorIPN7grobner8monomialELb0EjE11free_memoryEv(ptr noundef nonnull align 8 dereferenceable(8) %this1)
  br label %if.end

if.end:                                           ; preds = %if.then, %entry
  ret void
}

; Function Attrs: mustprogress nounwind uwtable
define linkonce_odr hidden void @_ZN6vectorIPN7grobner8monomialELb0EjED2Ev(ptr noundef nonnull align 8 dereferenceable(8) %this) unnamed_addr #5 comdat align 2 personality ptr @__gxx_personality_v0 {
entry:
  %this.addr = alloca ptr, align 8
  store ptr %this, ptr %this.addr, align 8
  %this1 = load ptr, ptr %this.addr, align 8
  invoke void @_ZN6vectorIPN7grobner8monomialELb0EjE7destroyEv(ptr noundef nonnull align 8 dereferenceable(8) %this1)
          to label %invoke.cont unwind label %terminate.lpad

invoke.cont:                                      ; preds = %entry
  ret void

terminate.lpad:                                   ; preds = %entry
  %0 = landingpad { ptr, i32 }
          catch ptr null
  %1 = extractvalue { ptr, i32 } %0, 0
  call void @__clang_call_terminate(ptr %1) #14
  unreachable
}

; Function Attrs: mustprogress nounwind uwtable
define linkonce_odr hidden void @_ZN10ptr_vectorIN7grobner8monomialEED2Ev(ptr noundef nonnull align 8 dereferenceable(8) %this) unnamed_addr #5 comdat align 2 {
entry:
  %this.addr = alloca ptr, align 8
  store ptr %this, ptr %this.addr, align 8
  %this1 = load ptr, ptr %this.addr, align 8
  call void @_ZN6vectorIPN7grobner8monomialELb0EjED2Ev(ptr noundef nonnull align 8 dereferenceable(8) %this1) #3
  ret void
}

; Function Attrs: mustprogress nounwind uwtable
define linkonce_odr hidden noundef i32 @_ZNK6vectorIPN7grobner8monomialELb0EjE4sizeEv(ptr noundef nonnull align 8 dereferenceable(8) %this) #5 comdat align 2 {
entry:
  %retval = alloca i32, align 4
  %this.addr = alloca ptr, align 8
  store ptr %this, ptr %this.addr, align 8
  %this1 = load ptr, ptr %this.addr, align 8
  %m_data = getelementptr inbounds %class.vector.4, ptr %this1, i32 0, i32 0
  %0 = load ptr, ptr %m_data, align 8
  %cmp = icmp eq ptr %0, null
  br i1 %cmp, label %if.then, label %if.end

if.then:                                          ; preds = %entry
  store i32 0, ptr %retval, align 4
  br label %return

if.end:                                           ; preds = %entry
  %m_data2 = getelementptr inbounds %class.vector.4, ptr %this1, i32 0, i32 0
  %1 = load ptr, ptr %m_data2, align 8
  %arrayidx = getelementptr inbounds i32, ptr %1, i64 -1
  %2 = load i32, ptr %arrayidx, align 4
  store i32 %2, ptr %retval, align 4
  br label %return

return:                                           ; preds = %if.end, %if.then
  %3 = load i32, ptr %retval, align 4
  ret i32 %3
}

; Function Attrs: mustprogress nounwind uwtable
define linkonce_odr hidden void @_ZN7grobner8equationD2Ev(ptr noundef nonnull align 8 dereferenceable(24) %this) unnamed_addr #5 comdat align 2 {
entry:
  %this.addr = alloca ptr, align 8
  store ptr %this, ptr %this.addr, align 8
  %this1 = load ptr, ptr %this.addr, align 8
  %m_monomials = getelementptr inbounds %"class.grobner::equation", ptr %this1, i32 0, i32 2
  call void @_ZN10ptr_vectorIN7grobner8monomialEED2Ev(ptr noundef nonnull align 8 dereferenceable(8) %m_monomials) #3
  ret void
}

; Function Attrs: mustprogress nounwind uwtable
define linkonce_odr hidden void @_ZN6vectorIPN7grobner8monomialELb0EjE5resetEv(ptr noundef nonnull align 8 dereferenceable(8) %this) #5 comdat align 2 {
entry:
  %this.addr = alloca ptr, align 8
  store ptr %this, ptr %this.addr, align 8
  %this1 = load ptr, ptr %this.addr, align 8
  %m_data = getelementptr inbounds %class.vector.4, ptr %this1, i32 0, i32 0
  %0 = load ptr, ptr %m_data, align 8
  %tobool = icmp ne ptr %0, null
  br i1 %tobool, label %if.then, label %if.end

if.then:                                          ; preds = %entry
  %m_data2 = getelementptr inbounds %class.vector.4, ptr %this1, i32 0, i32 0
  %1 = load ptr, ptr %m_data2, align 8
  %arrayidx = getelementptr inbounds i32, ptr %1, i64 -1
  store i32 0, ptr %arrayidx, align 4
  br label %if.end

if.end:                                           ; preds = %if.then, %entry
  ret void
}

; Function Attrs: mustprogress nounwind uwtable
define linkonce_odr hidden noundef ptr @_ZN6vectorIPN7grobner8monomialELb0EjE3endEv(ptr noundef nonnull align 8 dereferenceable(8) %this) #5 comdat align 2 {
entry:
  %this.addr = alloca ptr, align 8
  store ptr %this, ptr %this.addr, align 8
  %this1 = load ptr, ptr %this.addr, align 8
  %m_data = getelementptr inbounds %class.vector.4, ptr %this1, i32 0, i32 0
  %0 = load ptr, ptr %m_data, align 8
  %call = call noundef i32 @_ZNK6vectorIPN7grobner8monomialELb0EjE4sizeEv(ptr noundef nonnull align 8 dereferenceable(8) %this1)
  %idx.ext = zext i32 %call to i64
  %add.ptr = getelementptr inbounds ptr, ptr %0, i64 %idx.ext
  ret ptr %add.ptr
}

; Function Attrs: mustprogress nounwind uwtable
define linkonce_odr hidden noundef ptr @_ZN6vectorIPN7grobner8monomialELb0EjE5beginEv(ptr noundef nonnull align 8 dereferenceable(8) %this) #5 comdat align 2 {
entry:
  %this.addr = alloca ptr, align 8
  store ptr %this, ptr %this.addr, align 8
  %this1 = load ptr, ptr %this.addr, align 8
  %m_data = getelementptr inbounds %class.vector.4, ptr %this1, i32 0, i32 0
  %0 = load ptr, ptr %m_data, align 8
  ret ptr %0
}

; Function Attrs: mustprogress uwtable
define linkonce_odr hidden void @_Z7deallocIN7grobner8equationEEvPT_(ptr noundef %ptr) #4 comdat {
entry:
  %ptr.addr = alloca ptr, align 8
  store ptr %ptr, ptr %ptr.addr, align 8
  %0 = load ptr, ptr %ptr.addr, align 8
  %cmp = icmp eq ptr %0, null
  br i1 %cmp, label %if.then, label %if.end

if.then:                                          ; preds = %entry
  br label %return

if.end:                                           ; preds = %entry
  %1 = load ptr, ptr %ptr.addr, align 8
  call void @_ZN7grobner8equationD2Ev(ptr noundef nonnull align 8 dereferenceable(24) %1) #3
  %2 = load ptr, ptr %ptr.addr, align 8
  call void @_ZN6memory10deallocateEPv(ptr noundef %2)
  br label %return

return:                                           ; preds = %if.end, %if.then
  ret void
}

; Function Attrs: mustprogress uwtable
define hidden void @_ZN7grobner13del_monomialsER10ptr_vectorINS_8monomialEE(ptr noundef nonnull align 8 dereferenceable(228) %this, ptr noundef nonnull align 8 dereferenceable(8) %ms) #4 align 2 {
entry:
  %this.addr = alloca ptr, align 8
  %ms.addr = alloca ptr, align 8
  %__range1 = alloca ptr, align 8
  %__begin1 = alloca ptr, align 8
  %__end1 = alloca ptr, align 8
  %m = alloca ptr, align 8
  store ptr %this, ptr %this.addr, align 8
  store ptr %ms, ptr %ms.addr, align 8
  %this1 = load ptr, ptr %this.addr, align 8
  %0 = load ptr, ptr %ms.addr, align 8
  store ptr %0, ptr %__range1, align 8
  %1 = load ptr, ptr %__range1, align 8
  %call = call noundef ptr @_ZN6vectorIPN7grobner8monomialELb0EjE5beginEv(ptr noundef nonnull align 8 dereferenceable(8) %1)
  store ptr %call, ptr %__begin1, align 8
  %2 = load ptr, ptr %__range1, align 8
  %call2 = call noundef ptr @_ZN6vectorIPN7grobner8monomialELb0EjE3endEv(ptr noundef nonnull align 8 dereferenceable(8) %2)
  store ptr %call2, ptr %__end1, align 8
  br label %for.cond

for.cond:                                         ; preds = %for.inc, %entry
  %3 = load ptr, ptr %__begin1, align 8
  %4 = load ptr, ptr %__end1, align 8
  %cmp = icmp ne ptr %3, %4
  br i1 %cmp, label %for.body, label %for.end

for.body:                                         ; preds = %for.cond
  %5 = load ptr, ptr %__begin1, align 8
  store ptr %5, ptr %m, align 8
  %6 = load ptr, ptr %m, align 8
  %7 = load ptr, ptr %6, align 8
  call void @_ZN7grobner12del_monomialEPNS_8monomialE(ptr noundef nonnull align 8 dereferenceable(228) %this1, ptr noundef %7)
  br label %for.inc

for.inc:                                          ; preds = %for.body
  %8 = load ptr, ptr %__begin1, align 8
  %incdec.ptr = getelementptr inbounds ptr, ptr %8, i32 1
  store ptr %incdec.ptr, ptr %__begin1, align 8
  br label %for.cond

for.end:                                          ; preds = %for.cond
  %9 = load ptr, ptr %ms.addr, align 8
  call void @_ZN6vectorIPN7grobner8monomialELb0EjE5resetEv(ptr noundef nonnull align 8 dereferenceable(8) %9)
  ret void
}

; Function Attrs: mustprogress nounwind uwtable
define linkonce_odr hidden noundef nonnull align 8 dereferenceable(8) ptr @_ZN6vectorIPN7grobner8equationELb0EjEixEj(ptr noundef nonnull align 8 dereferenceable(8) %this, i32 noundef %idx) #5 comdat align 2 {
entry:
  %this.addr = alloca ptr, align 8
  %idx.addr = alloca i32, align 4
  store ptr %this, ptr %this.addr, align 8
  store i32 %idx, ptr %idx.addr, align 4
  %this1 = load ptr, ptr %this.addr, align 8
  %m_data = getelementptr inbounds %class.vector, ptr %this1, i32 0, i32 0
  %0 = load ptr, ptr %m_data, align 8
  %1 = load i32, ptr %idx.addr, align 4
  %idxprom = zext i32 %1 to i64
  %arrayidx = getelementptr inbounds ptr, ptr %0, i64 %idxprom
  ret ptr %arrayidx
}

; Function Attrs: mustprogress uwtable
define linkonce_odr hidden void @_ZN14core_hashtableI14obj_hash_entryIN7grobner8equationEE12obj_ptr_hashIS2_E6ptr_eqIS2_EE5eraseERKPS2_(ptr noundef nonnull align 8 dereferenceable(20) %this, ptr noundef nonnull align 8 dereferenceable(8) %e) #4 comdat align 2 {
entry:
  %this.addr = alloca ptr, align 8
  %e.addr = alloca ptr, align 8
  store ptr %this, ptr %this.addr, align 8
  store ptr %e, ptr %e.addr, align 8
  %this1 = load ptr, ptr %this.addr, align 8
  %0 = load ptr, ptr %e.addr, align 8
  call void @_ZN14core_hashtableI14obj_hash_entryIN7grobner8equationEE12obj_ptr_hashIS2_E6ptr_eqIS2_EE6removeERKPS2_(ptr noundef nonnull align 8 dereferenceable(20) %this1, ptr noundef nonnull align 8 dereferenceable(8) %0)
  ret void
}

; Function Attrs: mustprogress uwtable
define hidden void @_ZN7grobner12del_equationEPNS_8equationE(ptr noundef nonnull align 8 dereferenceable(228) %this, ptr noundef %eq) #4 align 2 {
entry:
  %this.addr = alloca ptr, align 8
  %eq.addr = alloca ptr, align 8
  store ptr %this, ptr %this.addr, align 8
  store ptr %eq, ptr %eq.addr, align 8
  %this1 = load ptr, ptr %this.addr, align 8
  %m_processed = getelementptr inbounds %class.grobner, ptr %this1, i32 0, i32 7
  call void @_ZN14core_hashtableI14obj_hash_entryIN7grobner8equationEE12obj_ptr_hashIS2_E6ptr_eqIS2_EE5eraseERKPS2_(ptr noundef nonnull align 8 dereferenceable(20) %m_processed, ptr noundef nonnull align 8 dereferenceable(8) %eq.addr)
  %m_to_process = getelementptr inbounds %class.grobner, ptr %this1, i32 0, i32 8
  call void @_ZN14core_hashtableI14obj_hash_entryIN7grobner8equationEE12obj_ptr_hashIS2_E6ptr_eqIS2_EE5eraseERKPS2_(ptr noundef nonnull align 8 dereferenceable(20) %m_to_process, ptr noundef nonnull align 8 dereferenceable(8) %eq.addr)
  %m_equations_to_delete = getelementptr inbounds %class.grobner, ptr %this1, i32 0, i32 10
  %0 = load ptr, ptr %eq.addr, align 8
  %m_bidx = getelementptr inbounds %"class.grobner::equation", ptr %0, i32 0, i32 1
  %bf.load = load i32, ptr %m_bidx, align 4
  %bf.clear = and i32 %bf.load, 2147483647
  %call = call noundef nonnull align 8 dereferenceable(8) ptr @_ZN6vectorIPN7grobner8equationELb0EjEixEj(ptr noundef nonnull align 8 dereferenceable(8) %m_equations_to_delete, i32 noundef %bf.clear)
  store ptr null, ptr %call, align 8
  %1 = load ptr, ptr %eq.addr, align 8
  %m_monomials = getelementptr inbounds %"class.grobner::equation", ptr %1, i32 0, i32 2
  call void @_ZN7grobner13del_monomialsER10ptr_vectorINS_8monomialEE(ptr noundef nonnull align 8 dereferenceable(228) %this1, ptr noundef nonnull align 8 dereferenceable(8) %m_monomials)
  %2 = load ptr, ptr %eq.addr, align 8
  call void @_Z7deallocIN7grobner8equationEEvPT_(ptr noundef %2)
  ret void
}