; Function Attrs: mustprogress uwtable
define hidden void @_ZN7grobner12del_equationEPNS_8equationE(ptr noundef nonnull align 8 dereferenceable(228) %this, ptr noundef %eq) local_unnamed_addr #3 align 2 personality ptr @__gxx_personality_v0 {
entry:
  %eq.addr = alloca ptr, align 8
  store ptr %eq, ptr %eq.addr, align 8
  %m_processed = getelementptr inbounds i8, ptr %this, i64 104
  call void @_ZN14core_hashtableI14obj_hash_entryIN7grobner8equationEE12obj_ptr_hashIS2_E6ptr_eqIS2_EE6removeERKPS2_(ptr noundef nonnull align 8 dereferenceable(20) %m_processed, ptr noundef nonnull align 8 dereferenceable(8) %eq.addr)
  %m_to_process = getelementptr inbounds i8, ptr %this, i64 128
  call void @_ZN14core_hashtableI14obj_hash_entryIN7grobner8equationEE12obj_ptr_hashIS2_E6ptr_eqIS2_EE6removeERKPS2_(ptr noundef nonnull align 8 dereferenceable(20) %m_to_process, ptr noundef nonnull align 8 dereferenceable(8) %eq.addr)
  %m_equations_to_delete = getelementptr inbounds i8, ptr %this, i64 160
  %0 = load ptr, ptr %eq.addr, align 8
  %m_bidx = getelementptr inbounds i8, ptr %0, i64 4
  %bf.load = load i32, ptr %m_bidx, align 4
  %bf.clear = and i32 %bf.load, 2147483647
  %1 = load ptr, ptr %m_equations_to_delete, align 8
  %idxprom.i = zext nneg i32 %bf.clear to i64
  %arrayidx.i = getelementptr inbounds ptr, ptr %1, i64 %idxprom.i
  store ptr null, ptr %arrayidx.i, align 8
  %2 = load ptr, ptr %eq.addr, align 8
  %m_monomials = getelementptr inbounds i8, ptr %2, i64 8
  %3 = load ptr, ptr %m_monomials, align 8
  %cmp.i.i.i = icmp eq ptr %3, null
  br i1 %cmp.i.i.i, label %if.end.i, label %_ZN6vectorIPN7grobner8monomialELb0EjE3endEv.exit.i

_ZN6vectorIPN7grobner8monomialELb0EjE3endEv.exit.i: ; preds = %entry
  %arrayidx.i.i.i = getelementptr inbounds i8, ptr %3, i64 -4
  %4 = load i32, ptr %arrayidx.i.i.i, align 4
  %5 = zext i32 %4 to i64
  %add.ptr.i.i = getelementptr inbounds ptr, ptr %3, i64 %5
  %cmp.not5.i = icmp eq i32 %4, 0
  br i1 %cmp.not5.i, label %if.then.i.i, label %for.body.i

for.body.i:                                       ; preds = %_ZN6vectorIPN7grobner8monomialELb0EjE3endEv.exit.i, %for.body.i
  %__begin1.06.i = phi ptr [ %incdec.ptr.i, %for.body.i ], [ %3, %_ZN6vectorIPN7grobner8monomialELb0EjE3endEv.exit.i ]
  %6 = load ptr, ptr %__begin1.06.i, align 8
  call void @_ZN7grobner12del_monomialEPNS_8monomialE(ptr noundef nonnull align 8 dereferenceable(228) %this, ptr noundef %6)
  %incdec.ptr.i = getelementptr inbounds i8, ptr %__begin1.06.i, i64 8
  %cmp.not.i = icmp eq ptr %incdec.ptr.i, %add.ptr.i.i
  br i1 %cmp.not.i, label %for.end.i, label %for.body.i

for.end.i:                                        ; preds = %for.body.i
  %.pre.i = load ptr, ptr %m_monomials, align 8
  %tobool.not.i.i = icmp eq ptr %.pre.i, null
  br i1 %tobool.not.i.i, label %_ZN7grobner13del_monomialsER10ptr_vectorINS_8monomialEE.exit, label %if.then.i.i

if.then.i.i:                                      ; preds = %for.end.i, %_ZN6vectorIPN7grobner8monomialELb0EjE3endEv.exit.i
  %7 = phi ptr [ %.pre.i, %for.end.i ], [ %3, %_ZN6vectorIPN7grobner8monomialELb0EjE3endEv.exit.i ]
  %arrayidx.i.i = getelementptr inbounds i8, ptr %7, i64 -4
  store i32 0, ptr %arrayidx.i.i, align 4
  br label %_ZN7grobner13del_monomialsER10ptr_vectorINS_8monomialEE.exit

_ZN7grobner13del_monomialsER10ptr_vectorINS_8monomialEE.exit: ; preds = %for.end.i, %if.then.i.i
  %.pr = load ptr, ptr %eq.addr, align 8
  %cmp.i = icmp eq ptr %.pr, null
  br i1 %cmp.i, label %_Z7deallocIN7grobner8equationEEvPT_.exit, label %if.end.i

if.end.i:                                         ; preds = %entry, %_ZN7grobner13del_monomialsER10ptr_vectorINS_8monomialEE.exit
  %8 = phi ptr [ %.pr, %_ZN7grobner13del_monomialsER10ptr_vectorINS_8monomialEE.exit ], [ %2, %entry ]
  %m_monomials.i.i = getelementptr inbounds i8, ptr %8, i64 8
  %9 = load ptr, ptr %m_monomials.i.i, align 8
  %tobool.not.i.i.i.i.i = icmp eq ptr %9, null
  br i1 %tobool.not.i.i.i.i.i, label %_ZN7grobner8equationD2Ev.exit.i, label %if.then.i.i.i.i.i

if.then.i.i.i.i.i:                                ; preds = %if.end.i
  %add.ptr.i.i.i.i.i.i = getelementptr inbounds i8, ptr %9, i64 -8
  invoke void @_ZN6memory10deallocateEPv(ptr noundef nonnull %add.ptr.i.i.i.i.i.i)
          to label %_ZN7grobner8equationD2Ev.exit.i unwind label %terminate.lpad.i.i.i.i

terminate.lpad.i.i.i.i:                           ; preds = %if.then.i.i.i.i.i
  %10 = landingpad { ptr, i32 }
          catch ptr null
  %11 = extractvalue { ptr, i32 } %10, 0
  call void @__clang_call_terminate(ptr %11) #19
  unreachable

_ZN7grobner8equationD2Ev.exit.i:                  ; preds = %if.then.i.i.i.i.i, %if.end.i
  call void @_ZN6memory10deallocateEPv(ptr noundef nonnull %8)
  br label %_Z7deallocIN7grobner8equationEEvPT_.exit

_Z7deallocIN7grobner8equationEEvPT_.exit:         ; preds = %_ZN7grobner13del_monomialsER10ptr_vectorINS_8monomialEE.exit, %_ZN7grobner8equationD2Ev.exit.i
  ret void
}